target datalayout = "e-m:e-p270:32:32-p271:32:32-p272:64:64-i64:64-i128:128-f80:128-n8:16:32:64-S128"
target triple = "x86_64-unknown-linux-gnu"

%struct.grpc_slice = type { ptr, %"union.grpc_slice::grpc_slice_data" }
%"union.grpc_slice::grpc_slice_data" = type { %"struct.grpc_slice::grpc_slice_data::grpc_slice_refcounted", [8 x i8] }
%"struct.grpc_slice::grpc_slice_data::grpc_slice_refcounted" = type { i64, ptr }
%struct.grpc_byte_buffer = type { ptr, i32, %"union.grpc_byte_buffer::grpc_byte_buffer_data" }
%"union.grpc_byte_buffer::grpc_byte_buffer_data" = type { %"struct.grpc_byte_buffer::grpc_byte_buffer_data::grpc_compressed_buffer" }
%"struct.grpc_byte_buffer::grpc_byte_buffer_data::grpc_compressed_buffer" = type { i32, %struct.grpc_slice_buffer }
%struct.grpc_slice_buffer = type { ptr, ptr, i64, i64, i64, [7 x %struct.grpc_slice] }

; Function Attrs: mustprogress uwtable
define ptr @grpc_raw_byte_buffer_from_reader(ptr noundef %reader) #4 {
entry:
  %reader.addr = alloca ptr, align 8
  %bb = alloca ptr, align 8
  %slice = alloca %struct.grpc_slice, align 8
  %agg.tmp = alloca %struct.grpc_slice, align 8
  store ptr %reader, ptr %reader.addr, align 8
  %call = call ptr @gpr_malloc(i64 noundef 288)
  store ptr %call, ptr %bb, align 8
  %0 = load ptr, ptr %bb, align 8
  %type = getelementptr inbounds %struct.grpc_byte_buffer, ptr %0, i32 0, i32 1
  store i32 0, ptr %type, align 8
  %1 = load ptr, ptr %bb, align 8
  %data = getelementptr inbounds %struct.grpc_byte_buffer, ptr %1, i32 0, i32 2
  %compression = getelementptr inbounds %"struct.grpc_byte_buffer::grpc_byte_buffer_data::grpc_compressed_buffer", ptr %data, i32 0, i32 0
  store i32 0, ptr %compression, align 8
  %2 = load ptr, ptr %bb, align 8
  %data1 = getelementptr inbounds %struct.grpc_byte_buffer, ptr %2, i32 0, i32 2
  %slice_buffer = getelementptr inbounds %"struct.grpc_byte_buffer::grpc_byte_buffer_data::grpc_compressed_buffer", ptr %data1, i32 0, i32 1
  call void @grpc_slice_buffer_init(ptr noundef %slice_buffer)
  br label %while.cond

while.cond:                                       ; preds = %while.body, %entry
  %3 = load ptr, ptr %reader.addr, align 8
  %call2 = call i32 @grpc_byte_buffer_reader_next(ptr noundef %3, ptr noundef %slice)
  %tobool = icmp ne i32 %call2, 0
  br i1 %tobool, label %while.body, label %while.end

while.body:                                       ; preds = %while.cond
  %4 = load ptr, ptr %bb, align 8
  %data3 = getelementptr inbounds %struct.grpc_byte_buffer, ptr %4, i32 0, i32 2
  %slice_buffer4 = getelementptr inbounds %"struct.grpc_byte_buffer::grpc_byte_buffer_data::grpc_compressed_buffer", ptr %data3, i32 0, i32 1
  call void @llvm.memcpy.p0.p0.i64(ptr align 8 %agg.tmp, ptr align 8 %slice, i64 32, i1 false)
  call void @grpc_slice_buffer_add(ptr noundef %slice_buffer4, ptr noundef byval(%struct.grpc_slice) align 8 %agg.tmp)
  br label %while.cond, !llvm.loop !6

while.end:                                        ; preds = %while.cond
  %5 = load ptr, ptr %bb, align 8
  ret ptr %5
}