; Function Attrs: mustprogress uwtable
define ptr @grpc_raw_byte_buffer_from_reader(ptr noundef %reader) local_unnamed_addr #3 {
entry:
  %slice = alloca %struct.grpc_slice, align 8
  %call = tail call ptr @gpr_malloc(i64 noundef 288)
  %type = getelementptr inbounds i8, ptr %call, i64 8
  store i32 0, ptr %type, align 8
  %data = getelementptr inbounds i8, ptr %call, i64 16
  store i32 0, ptr %data, align 8
  %slice_buffer = getelementptr inbounds i8, ptr %call, i64 24
  tail call void @grpc_slice_buffer_init(ptr noundef nonnull %slice_buffer)
  %call25 = call i32 @grpc_byte_buffer_reader_next(ptr noundef %reader, ptr noundef nonnull %slice)
  %tobool.not6 = icmp eq i32 %call25, 0
  br i1 %tobool.not6, label %while.end, label %while.body

while.body:                                       ; preds = %entry, %while.body
  call void @grpc_slice_buffer_add(ptr noundef nonnull %slice_buffer, ptr noundef nonnull byval(%struct.grpc_slice) align 8 %slice)
  %call2 = call i32 @grpc_byte_buffer_reader_next(ptr noundef %reader, ptr noundef nonnull %slice)
  %tobool.not = icmp eq i32 %call2, 0
  br i1 %tobool.not, label %while.end, label %while.body, !llvm.loop !6

while.end:                                        ; preds = %while.body, %entry
  ret ptr %call
}